target datalayout = "e-m:e-p270:32:32-p271:32:32-p272:64:64-i64:64-i128:128-f80:128-n8:16:32:64-S128"
target triple = "x86_64-pc-linux-gnu"

%"class.icu_77::CollationRootElements" = type <{ ptr, i32, [4 x i8] }>

; Function Attrs: mustprogress nounwind uwtable
define noundef i32 @_ZNK6icu_7721CollationRootElements5findPEj(ptr noundef nonnull align 8 dereferenceable(12) %0, i32 noundef %1) #2 align 2 {
  %3 = alloca ptr, align 8
  %4 = alloca i32, align 4
  %5 = alloca i32, align 4
  %6 = alloca i32, align 4
  %7 = alloca i32, align 4
  %8 = alloca i32, align 4
  %9 = alloca i32, align 4
  %10 = alloca i32, align 4
  store ptr %0, ptr %3, align 8, !tbaa !3
  store i32 %1, ptr %4, align 4, !tbaa !8
  %11 = load ptr, ptr %3, align 8
  call void @llvm.lifetime.start.p0(i64 4, ptr %5) #4
  %12 = getelementptr inbounds nuw %"class.icu_77::CollationRootElements", ptr %11, i32 0, i32 0
  %13 = load ptr, ptr %12, align 8, !tbaa !10
  %14 = getelementptr inbounds nuw i32, ptr %13, i64 2
  %15 = load i32, ptr %14, align 4, !tbaa !8
  store i32 %15, ptr %5, align 4, !tbaa !8
  call void @llvm.lifetime.start.p0(i64 4, ptr %6) #4
  %16 = getelementptr inbounds nuw %"class.icu_77::CollationRootElements", ptr %11, i32 0, i32 1
  %17 = load i32, ptr %16, align 8, !tbaa !16
  %18 = sub nsw i32 %17, 1
  store i32 %18, ptr %6, align 4, !tbaa !8
  br label %19

19:                                               ; preds = %110, %2
  %20 = load i32, ptr %5, align 4, !tbaa !8
  %21 = add nsw i32 %20, 1
  %22 = load i32, ptr %6, align 4, !tbaa !8
  %23 = icmp slt i32 %21, %22
  br i1 %23, label %24, label %111

24:                                               ; preds = %19
  call void @llvm.lifetime.start.p0(i64 4, ptr %7) #4
  %25 = load i32, ptr %5, align 4, !tbaa !8
  %26 = load i32, ptr %6, align 4, !tbaa !8
  %27 = add nsw i32 %25, %26
  %28 = sdiv i32 %27, 2
  store i32 %28, ptr %7, align 4, !tbaa !8
  call void @llvm.lifetime.start.p0(i64 4, ptr %8) #4
  %29 = getelementptr inbounds nuw %"class.icu_77::CollationRootElements", ptr %11, i32 0, i32 0
  %30 = load ptr, ptr %29, align 8, !tbaa !10
  %31 = load i32, ptr %7, align 4, !tbaa !8
  %32 = sext i32 %31 to i64
  %33 = getelementptr inbounds i32, ptr %30, i64 %32
  %34 = load i32, ptr %33, align 4, !tbaa !8
  store i32 %34, ptr %8, align 4, !tbaa !8
  %35 = load i32, ptr %8, align 4, !tbaa !8
  %36 = and i32 %35, 128
  %37 = icmp ne i32 %36, 0
  br i1 %37, label %38, label %98

38:                                               ; preds = %24
  call void @llvm.lifetime.start.p0(i64 4, ptr %9) #4
  %39 = load i32, ptr %7, align 4, !tbaa !8
  %40 = add nsw i32 %39, 1
  store i32 %40, ptr %9, align 4, !tbaa !8
  br label %41

41:                                               ; preds = %58, %38
  %42 = load i32, ptr %9, align 4, !tbaa !8
  %43 = load i32, ptr %6, align 4, !tbaa !8
  %44 = icmp eq i32 %42, %43
  br i1 %44, label %45, label %46

45:                                               ; preds = %41
  br label %61

46:                                               ; preds = %41
  %47 = getelementptr inbounds nuw %"class.icu_77::CollationRootElements", ptr %11, i32 0, i32 0
  %48 = load ptr, ptr %47, align 8, !tbaa !10
  %49 = load i32, ptr %9, align 4, !tbaa !8
  %50 = sext i32 %49 to i64
  %51 = getelementptr inbounds i32, ptr %48, i64 %50
  %52 = load i32, ptr %51, align 4, !tbaa !8
  store i32 %52, ptr %8, align 4, !tbaa !8
  %53 = load i32, ptr %8, align 4, !tbaa !8
  %54 = and i32 %53, 128
  %55 = icmp eq i32 %54, 0
  br i1 %55, label %56, label %58

56:                                               ; preds = %46
  %57 = load i32, ptr %9, align 4, !tbaa !8
  store i32 %57, ptr %7, align 4, !tbaa !8
  br label %61

58:                                               ; preds = %46
  %59 = load i32, ptr %9, align 4, !tbaa !8
  %60 = add nsw i32 %59, 1
  store i32 %60, ptr %9, align 4, !tbaa !8
  br label %41, !llvm.loop !17

61:                                               ; preds = %56, %45
  %62 = load i32, ptr %8, align 4, !tbaa !8
  %63 = and i32 %62, 128
  %64 = icmp ne i32 %63, 0
  br i1 %64, label %65, label %94

65:                                               ; preds = %61
  %66 = load i32, ptr %7, align 4, !tbaa !8
  %67 = sub nsw i32 %66, 1
  store i32 %67, ptr %9, align 4, !tbaa !8
  br label %68

68:                                               ; preds = %85, %65
  %69 = load i32, ptr %9, align 4, !tbaa !8
  %70 = load i32, ptr %5, align 4, !tbaa !8
  %71 = icmp eq i32 %69, %70
  br i1 %71, label %72, label %73

72:                                               ; preds = %68
  br label %88

73:                                               ; preds = %68
  %74 = getelementptr inbounds nuw %"class.icu_77::CollationRootElements", ptr %11, i32 0, i32 0
  %75 = load ptr, ptr %74, align 8, !tbaa !10
  %76 = load i32, ptr %9, align 4, !tbaa !8
  %77 = sext i32 %76 to i64
  %78 = getelementptr inbounds i32, ptr %75, i64 %77
  %79 = load i32, ptr %78, align 4, !tbaa !8
  store i32 %79, ptr %8, align 4, !tbaa !8
  %80 = load i32, ptr %8, align 4, !tbaa !8
  %81 = and i32 %80, 128
  %82 = icmp eq i32 %81, 0
  br i1 %82, label %83, label %85

83:                                               ; preds = %73
  %84 = load i32, ptr %9, align 4, !tbaa !8
  store i32 %84, ptr %7, align 4, !tbaa !8
  br label %88

85:                                               ; preds = %73
  %86 = load i32, ptr %9, align 4, !tbaa !8
  %87 = add nsw i32 %86, -1
  store i32 %87, ptr %9, align 4, !tbaa !8
  br label %68, !llvm.loop !18

88:                                               ; preds = %83, %72
  %89 = load i32, ptr %8, align 4, !tbaa !8
  %90 = and i32 %89, 128
  %91 = icmp ne i32 %90, 0
  br i1 %91, label %92, label %93

92:                                               ; preds = %88
  store i32 3, ptr %10, align 4
  br label %95

93:                                               ; preds = %88
  br label %94

94:                                               ; preds = %93, %61
  store i32 0, ptr %10, align 4
  br label %95

95:                                               ; preds = %94, %92
  call void @llvm.lifetime.end.p0(i64 4, ptr %9) #4
  %96 = load i32, ptr %10, align 4
  switch i32 %96, label %108 [
    i32 0, label %97
  ]

97:                                               ; preds = %95
  br label %98

98:                                               ; preds = %97, %24
  %99 = load i32, ptr %4, align 4, !tbaa !8
  %100 = load i32, ptr %8, align 4, !tbaa !8
  %101 = and i32 %100, -256
  %102 = icmp ult i32 %99, %101
  br i1 %102, label %103, label %105

103:                                              ; preds = %98
  %104 = load i32, ptr %7, align 4, !tbaa !8
  store i32 %104, ptr %6, align 4, !tbaa !8
  br label %107

105:                                              ; preds = %98
  %106 = load i32, ptr %7, align 4, !tbaa !8
  store i32 %106, ptr %5, align 4, !tbaa !8
  br label %107

107:                                              ; preds = %105, %103
  store i32 0, ptr %10, align 4
  br label %108

108:                                              ; preds = %107, %95
  call void @llvm.lifetime.end.p0(i64 4, ptr %8) #4
  call void @llvm.lifetime.end.p0(i64 4, ptr %7) #4
  %109 = load i32, ptr %10, align 4
  switch i32 %109, label %113 [
    i32 0, label %110
    i32 3, label %111
  ]

110:                                              ; preds = %108
  br label %19, !llvm.loop !19

111:                                              ; preds = %108, %19
  %112 = load i32, ptr %5, align 4, !tbaa !8
  store i32 1, ptr %10, align 4
  call void @llvm.lifetime.end.p0(i64 4, ptr %6) #4
  call void @llvm.lifetime.end.p0(i64 4, ptr %5) #4
  ret i32 %112

113:                                              ; preds = %108
  unreachable
}

; Function Attrs: mustprogress nounwind uwtable
define noundef i32 @_ZNK6icu_7721CollationRootElements24getFirstSecTerForPrimaryEi(ptr noundef nonnull align 8 dereferenceable(12) %0, i32 noundef %1) #2 align 2 {
  %3 = alloca i32, align 4
  %4 = alloca ptr, align 8
  %5 = alloca i32, align 4
  %6 = alloca i32, align 4
  %7 = alloca i32, align 4
  store ptr %0, ptr %4, align 8, !tbaa !3
  store i32 %1, ptr %5, align 4, !tbaa !8
  %8 = load ptr, ptr %4, align 8
  call void @llvm.lifetime.start.p0(i64 4, ptr %6) #4
  %9 = getelementptr inbounds nuw %"class.icu_77::CollationRootElements", ptr %8, i32 0, i32 0
  %10 = load ptr, ptr %9, align 8, !tbaa !10
  %11 = load i32, ptr %5, align 4, !tbaa !8
  %12 = sext i32 %11 to i64
  %13 = getelementptr inbounds i32, ptr %10, i64 %12
  %14 = load i32, ptr %13, align 4, !tbaa !8
  store i32 %14, ptr %6, align 4, !tbaa !8
  %15 = load i32, ptr %6, align 4, !tbaa !8
  %16 = and i32 %15, 128
  %17 = icmp eq i32 %16, 0
  br i1 %17, label %18, label %19

18:                                               ; preds = %2
  store i32 83887360, ptr %3, align 4
  store i32 1, ptr %7, align 4
  br label %27

19:                                               ; preds = %2
  %20 = load i32, ptr %6, align 4, !tbaa !8
  %21 = and i32 %20, -129
  store i32 %21, ptr %6, align 4, !tbaa !8
  %22 = load i32, ptr %6, align 4, !tbaa !8
  %23 = icmp ugt i32 %22, 83887360
  br i1 %23, label %24, label %25

24:                                               ; preds = %19
  store i32 83887360, ptr %3, align 4
  store i32 1, ptr %7, align 4
  br label %27

25:                                               ; preds = %19
  %26 = load i32, ptr %6, align 4, !tbaa !8
  store i32 %26, ptr %3, align 4
  store i32 1, ptr %7, align 4
  br label %27

27:                                               ; preds = %25, %24, %18
  call void @llvm.lifetime.end.p0(i64 4, ptr %6) #4
  %28 = load i32, ptr %3, align 4
  ret i32 %28
}

; Function Attrs: mustprogress uwtable
define noundef i32 @_ZNK6icu_7721CollationRootElements11findPrimaryEj(ptr noundef nonnull align 8 dereferenceable(12) %0, i32 noundef %1) #0 align 2 {
  %3 = alloca ptr, align 8
  %4 = alloca i32, align 4
  %5 = alloca i32, align 4
  store ptr %0, ptr %3, align 8, !tbaa !3
  store i32 %1, ptr %4, align 4, !tbaa !8
  %6 = load ptr, ptr %3, align 8
  call void @llvm.lifetime.start.p0(i64 4, ptr %5) #4
  %7 = load i32, ptr %4, align 4, !tbaa !8
  %8 = call noundef i32 @_ZNK6icu_7721CollationRootElements5findPEj(ptr noundef nonnull align 8 dereferenceable(12) %6, i32 noundef %7)
  store i32 %8, ptr %5, align 4, !tbaa !8
  %9 = load i32, ptr %5, align 4, !tbaa !8
  call void @llvm.lifetime.end.p0(i64 4, ptr %5) #4
  ret i32 %9
}

; Function Attrs: mustprogress uwtable
define noundef i32 @_ZNK6icu_7721CollationRootElements18getSecondaryBeforeEjj(ptr noundef nonnull align 8 dereferenceable(12) %0, i32 noundef %1, i32 noundef %2) #0 align 2 {
  %4 = alloca ptr, align 8
  %5 = alloca i32, align 4
  %6 = alloca i32, align 4
  %7 = alloca i32, align 4
  %8 = alloca i32, align 4
  %9 = alloca i32, align 4
  store ptr %0, ptr %4, align 8, !tbaa !3
  store i32 %1, ptr %5, align 4, !tbaa !8
  store i32 %2, ptr %6, align 4, !tbaa !8
  %10 = load ptr, ptr %4, align 8
  call void @llvm.lifetime.start.p0(i64 4, ptr %7) #4
  call void @llvm.lifetime.start.p0(i64 4, ptr %8) #4
  call void @llvm.lifetime.start.p0(i64 4, ptr %9) #4
  %11 = load i32, ptr %5, align 4, !tbaa !8
  %12 = icmp eq i32 %11, 0
  br i1 %12, label %13, label %25

13:                                               ; preds = %3
  %14 = getelementptr inbounds nuw %"class.icu_77::CollationRootElements", ptr %10, i32 0, i32 0
  %15 = load ptr, ptr %14, align 8, !tbaa !10
  %16 = getelementptr inbounds nuw i32, ptr %15, i64 1
  %17 = load i32, ptr %16, align 4, !tbaa !8
  store i32 %17, ptr %7, align 4, !tbaa !8
  store i32 0, ptr %8, align 4, !tbaa !8
  %18 = getelementptr inbounds nuw %"class.icu_77::CollationRootElements", ptr %10, i32 0, i32 0
  %19 = load ptr, ptr %18, align 8, !tbaa !10
  %20 = load i32, ptr %7, align 4, !tbaa !8
  %21 = sext i32 %20 to i64
  %22 = getelementptr inbounds i32, ptr %19, i64 %21
  %23 = load i32, ptr %22, align 4, !tbaa !8
  %24 = lshr i32 %23, 16
  store i32 %24, ptr %9, align 4, !tbaa !8
  br label %32

25:                                               ; preds = %3
  %26 = load i32, ptr %5, align 4, !tbaa !8
  %27 = call noundef i32 @_ZNK6icu_7721CollationRootElements11findPrimaryEj(ptr noundef nonnull align 8 dereferenceable(12) %10, i32 noundef %26)
  %28 = add nsw i32 %27, 1
  store i32 %28, ptr %7, align 4, !tbaa !8
  store i32 256, ptr %8, align 4, !tbaa !8
  %29 = load i32, ptr %7, align 4, !tbaa !8
  %30 = call noundef i32 @_ZNK6icu_7721CollationRootElements24getFirstSecTerForPrimaryEi(ptr noundef nonnull align 8 dereferenceable(12) %10, i32 noundef %29)
  %31 = lshr i32 %30, 16
  store i32 %31, ptr %9, align 4, !tbaa !8
  br label %32

32:                                               ; preds = %25, %13
  br label %33

33:                                               ; preds = %37, %32
  %34 = load i32, ptr %6, align 4, !tbaa !8
  %35 = load i32, ptr %9, align 4, !tbaa !8
  %36 = icmp ugt i32 %34, %35
  br i1 %36, label %37, label %47

37:                                               ; preds = %33
  %38 = load i32, ptr %9, align 4, !tbaa !8
  store i32 %38, ptr %8, align 4, !tbaa !8
  %39 = getelementptr inbounds nuw %"class.icu_77::CollationRootElements", ptr %10, i32 0, i32 0
  %40 = load ptr, ptr %39, align 8, !tbaa !10
  %41 = load i32, ptr %7, align 4, !tbaa !8
  %42 = add nsw i32 %41, 1
  store i32 %42, ptr %7, align 4, !tbaa !8
  %43 = sext i32 %41 to i64
  %44 = getelementptr inbounds i32, ptr %40, i64 %43
  %45 = load i32, ptr %44, align 4, !tbaa !8
  %46 = lshr i32 %45, 16
  store i32 %46, ptr %9, align 4, !tbaa !8
  br label %33, !llvm.loop !23

47:                                               ; preds = %33
  %48 = load i32, ptr %8, align 4, !tbaa !8
  call void @llvm.lifetime.end.p0(i64 4, ptr %9) #4
  call void @llvm.lifetime.end.p0(i64 4, ptr %8) #4
  call void @llvm.lifetime.end.p0(i64 4, ptr %7) #4
  ret i32 %48
}