; Function Attrs: mustprogress nofree norecurse nosync nounwind willreturn memory(read, inaccessiblemem: none) uwtable
define noundef range(i32 0, 65536) i32 @_ZNK6icu_7721CollationRootElements18getSecondaryBeforeEjj(ptr noundef nonnull readonly align 8 captures(none) dereferenceable(12) %0, i32 noundef %1, i32 noundef %2) local_unnamed_addr #0 align 2 {
  %4 = icmp eq i32 %1, 0
  %5 = load ptr, ptr %0, align 8, !tbaa !3
  br i1 %4, label %6, label %12

6:                                                ; preds = %3
  %7 = getelementptr inbounds nuw i8, ptr %5, i64 4
  %8 = load i32, ptr %7, align 4, !tbaa !10
  %9 = sext i32 %8 to i64
  %10 = getelementptr inbounds i32, ptr %5, i64 %9
  %11 = load i32, ptr %10, align 4, !tbaa !10
  br label %56

12:                                               ; preds = %3
  %13 = getelementptr inbounds nuw i8, ptr %5, i64 8
  %14 = load i32, ptr %13, align 4, !tbaa !10
  %15 = getelementptr inbounds nuw i8, ptr %0, i64 8
  %16 = load i32, ptr %15, align 8, !tbaa !11
  %17 = add nsw i32 %16, -1
  %18 = add nsw i32 %14, 1
  %19 = icmp slt i32 %18, %17
  br i1 %19, label %.lr.ph.i, label %_ZNK6icu_7721CollationRootElements11findPrimaryEj.exit

.lr.ph.i:                                         ; preds = %12, %._crit_edge62.i.i
  %.038.i11.i = phi i32 [ %.033..038.i.i, %._crit_edge62.i.i ], [ %17, %12 ]
  %.041.i10.i = phi i32 [ %.041..033.i.i, %._crit_edge62.i.i ], [ %14, %12 ]
  %20 = add nsw i32 %.041.i10.i, %.038.i11.i
  %21 = sdiv i32 %20, 2
  %22 = sext i32 %21 to i64
  %23 = getelementptr inbounds i32, ptr %5, i64 %22
  %24 = load i32, ptr %23, align 4, !tbaa !10
  %25 = and i32 %24, 128
  %.not.i.i = icmp eq i32 %25, 0
  br i1 %.not.i.i, label %._crit_edge62.i.i, label %.preheader52.i.i

.preheader52.i.i:                                 ; preds = %.lr.ph.i
  %.02953.i.i = add nsw i32 %21, 1
  %26 = icmp eq i32 %.02953.i.i, %.038.i11.i
  br i1 %26, label %.preheader.i.i, label %.lr.ph.preheader.i.i

.lr.ph.preheader.i.i:                             ; preds = %.preheader52.i.i
  %27 = add nsw i64 %22, 1
  br label %.lr.ph.i.i

28:                                               ; preds = %.lr.ph.i.i
  %indvars.iv.next.i.i = add nsw i64 %indvars.iv.i.i, 1
  %29 = trunc nsw i64 %indvars.iv.next.i.i to i32
  %30 = icmp eq i32 %.038.i11.i, %29
  br i1 %30, label %.preheader.i.i, label %.lr.ph.i.i, !llvm.loop !12

.lr.ph.i.i:                                       ; preds = %28, %.lr.ph.preheader.i.i
  %indvars.iv.i.i = phi i64 [ %27, %.lr.ph.preheader.i.i ], [ %indvars.iv.next.i.i, %28 ]
  %31 = getelementptr inbounds i32, ptr %5, i64 %indvars.iv.i.i
  %32 = load i32, ptr %31, align 4, !tbaa !10
  %33 = and i32 %32, 128
  %34 = icmp eq i32 %33, 0
  br i1 %34, label %._crit_edge62.loopexit90.i.i, label %28, !llvm.loop !12

.preheader.i.i:                                   ; preds = %28, %.preheader52.i.i
  %.13059.i.i = add nsw i32 %21, -1
  %35 = icmp eq i32 %.13059.i.i, %.041.i10.i
  br i1 %35, label %_ZNK6icu_7721CollationRootElements11findPrimaryEj.exit, label %.lr.ph61.preheader.i.i

.lr.ph61.preheader.i.i:                           ; preds = %.preheader.i.i
  %36 = sext i32 %.13059.i.i to i64
  br label %.lr.ph61.i.i

37:                                               ; preds = %.lr.ph61.i.i
  %indvars.iv.next71.i.i = add nsw i64 %indvars.iv70.i.i, -1
  %38 = trunc nsw i64 %indvars.iv.next71.i.i to i32
  %39 = icmp eq i32 %.041.i10.i, %38
  br i1 %39, label %_ZNK6icu_7721CollationRootElements11findPrimaryEj.exit, label %.lr.ph61.i.i, !llvm.loop !14

.lr.ph61.i.i:                                     ; preds = %37, %.lr.ph61.preheader.i.i
  %indvars.iv70.i.i = phi i64 [ %36, %.lr.ph61.preheader.i.i ], [ %indvars.iv.next71.i.i, %37 ]
  %40 = getelementptr inbounds i32, ptr %5, i64 %indvars.iv70.i.i
  %41 = load i32, ptr %40, align 4, !tbaa !10
  %42 = and i32 %41, 128
  %43 = icmp eq i32 %42, 0
  br i1 %43, label %._crit_edge62.loopexit.i.i, label %37, !llvm.loop !14

._crit_edge62.loopexit.i.i:                       ; preds = %.lr.ph61.i.i
  %44 = trunc nsw i64 %indvars.iv70.i.i to i32
  br label %._crit_edge62.i.i

._crit_edge62.loopexit90.i.i:                     ; preds = %.lr.ph.i.i
  %45 = trunc nsw i64 %indvars.iv.i.i to i32
  br label %._crit_edge62.i.i

._crit_edge62.i.i:                                ; preds = %._crit_edge62.loopexit90.i.i, %._crit_edge62.loopexit.i.i, %.lr.ph.i
  %.033.i.i = phi i32 [ %21, %.lr.ph.i ], [ %44, %._crit_edge62.loopexit.i.i ], [ %45, %._crit_edge62.loopexit90.i.i ]
  %.031.i.i = phi i32 [ %24, %.lr.ph.i ], [ %41, %._crit_edge62.loopexit.i.i ], [ %32, %._crit_edge62.loopexit90.i.i ]
  %46 = and i32 %.031.i.i, -256
  %47 = icmp ult i32 %1, %46
  %.041..033.i.i = select i1 %47, i32 %.041.i10.i, i32 %.033.i.i
  %.033..038.i.i = select i1 %47, i32 %.033.i.i, i32 %.038.i11.i
  %48 = add nsw i32 %.041..033.i.i, 1
  %49 = icmp slt i32 %48, %.033..038.i.i
  br i1 %49, label %.lr.ph.i, label %_ZNK6icu_7721CollationRootElements11findPrimaryEj.exit

_ZNK6icu_7721CollationRootElements11findPrimaryEj.exit: ; preds = %.preheader.i.i, %._crit_edge62.i.i, %37, %12
  %.041.i9.i = phi i32 [ %14, %12 ], [ %.041.i10.i, %37 ], [ %.041..033.i.i, %._crit_edge62.i.i ], [ %.041.i10.i, %.preheader.i.i ]
  %50 = add nsw i32 %.041.i9.i, 1
  %51 = sext i32 %50 to i64
  %52 = getelementptr inbounds i32, ptr %5, i64 %51
  %53 = load i32, ptr %52, align 4, !tbaa !10
  %54 = and i32 %53, 128
  %55 = icmp eq i32 %54, 0
  %..i = tail call i32 @llvm.umin.i32(i32 %53, i32 83887360)
  %.0.i = select i1 %55, i32 83887360, i32 %..i
  br label %56

56:                                               ; preds = %_ZNK6icu_7721CollationRootElements11findPrimaryEj.exit, %6
  %.011 = phi i32 [ %8, %6 ], [ %50, %_ZNK6icu_7721CollationRootElements11findPrimaryEj.exit ]
  %.09 = phi i32 [ 0, %6 ], [ 256, %_ZNK6icu_7721CollationRootElements11findPrimaryEj.exit ]
  %.0.in = phi i32 [ %11, %6 ], [ %.0.i, %_ZNK6icu_7721CollationRootElements11findPrimaryEj.exit ]
  %.121 = lshr i32 %.0.in, 16
  %57 = icmp ugt i32 %2, %.121
  br i1 %57, label %.lr.ph, label %._crit_edge

.lr.ph:                                           ; preds = %56
  %58 = sext i32 %.011 to i64
  br label %59

59:                                               ; preds = %.lr.ph, %59
  %indvars.iv = phi i64 [ %58, %.lr.ph ], [ %indvars.iv.next, %59 ]
  %.123 = phi i32 [ %.121, %.lr.ph ], [ %.1, %59 ]
  %indvars.iv.next = add nsw i64 %indvars.iv, 1
  %60 = getelementptr inbounds i32, ptr %5, i64 %indvars.iv
  %61 = load i32, ptr %60, align 4, !tbaa !10
  %.1 = lshr i32 %61, 16
  %62 = icmp ugt i32 %2, %.1
  br i1 %62, label %59, label %._crit_edge, !llvm.loop !19

._crit_edge:                                      ; preds = %59, %56
  %.110.lcssa = phi i32 [ %.09, %56 ], [ %.123, %59 ]
  ret i32 %.110.lcssa
}